ctorch.cuda
LongTensor
p0
(tRp1
(ctorch.cuda
LongStorage
p2
((lp3
I0
aI7
aI9
aI1
aI6
aI5
aI2
aI0
aI7
aI9
aI10
aI15
aI5
aI2
aI7
aI9
aI10
aI6
aI15
aI5
aI2
aI0
aI0
aI0
aI7
aI9
aI14
aI2
aI0
aI7
aI9
aI1
aI4
aI5
aI3
aI0
aI7
aI9
aI1
aI6
aI5
aI3
aI0
aI7
aI9
aI10
aI15
aI5
aI3
aI7
aI9
aI10
aI6
aI11
aI5
aI3
aI7
aI9
aI10
aI4
aI11
aI5
aI3
aI7
aI9
aI10
aI6
aI15
aI5
aI3
aI0
aI7
aI9
aI10
aI11
aI5
aI3
aI0
aI0
aI0
aI7
aI9
aI14
aI3
aI7
aI9
aI10
aI4
aI15
aI5
aI3
aI0
aI7
aI9
aI1
aI4
aI5
aI8
aI0
aI7
aI9
aI1
aI6
aI5
aI8
aI0
aI7
aI9
aI10
aI15
aI5
aI8
aI7
aI9
aI10
aI6
aI11
aI5
aI8
aI7
aI9
aI10
aI4
aI11
aI5
aI8
aI7
aI9
aI10
aI6
aI15
aI5
aI8
aI0
aI7
aI9
aI10
aI11
aI5
aI8
aI0
aI0
aI0
aI7
aI9
aI14
aI8
aI7
aI9
aI10
aI4
aI15
aI5
aI8
aI0
aI7
aI9
aI1
aI4
aI5
aI12
aI0
aI7
aI9
aI1
aI6
aI5
aI12
aI0
aI7
aI9
aI10
aI15
aI5
aI12
aI7
aI9
aI10
aI6
aI11
aI5
aI12
aI7
aI9
aI10
aI4
aI11
aI5
aI12
aI7
aI9
aI10
aI6
aI15
aI5
aI12
aI0
aI7
aI9
aI10
aI11
aI5
aI12
aI0
aI0
aI0
aI7
aI9
aI14
aI12
aI7
aI9
aI10
aI4
aI15
aI5
aI12
aI0
aI7
aI9
aI1
aI4
aI5
aI13
aI0
aI7
aI9
aI1
aI6
aI5
aI13
aI7
aI9
aI10
aI6
aI11
aI5
aI13
aI7
aI9
aI10
aI4
aI11
aI5
aI13
aI0
aI7
aI9
aI10
aI11
aI5
aI13
aI0
aI0
aI0
aI7
aI9
aI14
aI13
aI0
aI7
aI9
aI1
aI4
aI5
aI2
aI0
aI7
aI9
aI10
aI15
aI5
aI2
aI0
aI0
aI0
aI7
aI9
aI14
aI2
aI7
aI9
aI10
aI4
aI15
aI5
aI2
aI0
aI7
aI9
aI1
aI4
aI5
aI3
aI0
aI7
aI9
aI10
aI15
aI5
aI3
aI7
aI9
aI10
aI4
aI11
aI5
aI3
aI0
aI7
aI9
aI10
aI11
aI5
aI3
aI0
aI0
aI0
aI7
aI9
aI14
aI3
aI7
aI9
aI10
aI4
aI15
aI5
aI3
aI0
aI7
aI9
aI1
aI4
aI5
aI8
aI0
aI7
aI9
aI10
aI15
aI5
aI8
aI0
aI0
aI0
aI7
aI9
aI14
aI8
aI7
aI9
aI10
aI4
aI15
aI5
aI8
aI0
aI7
aI9
aI1
aI4
aI5
aI12
aI0
aI7
aI9
aI1
aI6
aI5
aI12
aI0
aI7
aI9
aI10
aI15
aI5
aI12
aI7
aI9
aI10
aI6
aI15
aI5
aI12
aI0
aI0
aI0
aI7
aI9
aI14
aI12
aI7
aI9
aI10
aI4
aI15
aI5
aI12
aI0
aI7
aI9
aI1
aI4
aI5
aI13
aI0
aI7
aI9
aI10
aI15
aI5
aI13
aI7
aI9
aI10
aI4
aI11
aI5
aI13
aI7
aI9
aI10
aI6
aI15
aI5
aI13
aI0
aI7
aI9
aI10
aI11
aI5
aI13
aI0
aI0
aI0
aI7
aI9
aI14
aI13
aI7
aI9
aI10
aI4
aI15
aI5
aI13
aI0
aI7
aI9
aI1
aI4
aI5
aI2
aI0
aI7
aI9
aI1
aI6
aI5
aI2
aI0
aI7
aI9
aI10
aI15
aI5
aI2
aI7
aI9
aI10
aI4
aI11
aI5
aI2
aI7
aI9
aI10
aI6
aI15
aI5
aI2
aI0
aI0
aI0
aI7
aI9
aI14
aI2
aI7
aI9
aI10
aI4
aI15
aI5
aI2
aI0
aI7
aI9
aI1
aI4
aI5
aI3
aI0
aI7
aI9
aI1
aI6
aI5
aI3
aI0
aI7
aI9
aI10
aI15
aI5
aI3
aI7
aI9
aI10
aI4
aI11
aI5
aI3
aI7
aI9
aI10
aI6
aI15
aI5
aI3
aI0
aI7
aI9
aI10
aI11
aI5
aI3
aI0
aI0
aI0
aI7
aI9
aI14
aI3
aI7
aI9
aI10
aI4
aI15
aI5
aI3
aI0
aI7
aI9
aI1
aI4
aI5
aI8
aI0
aI7
aI9
aI1
aI6
aI5
aI8
aI0
aI7
aI9
aI10
aI15
aI5
aI8
aI0
aI0
aI0
aI7
aI9
aI14
aI8
aI7
aI9
aI10
aI4
aI15
aI5
aI8
aI0
aI7
aI9
aI1
aI4
aI5
aI12
aI0
aI7
aI9
aI1
aI6
aI5
aI12
aI0
aI7
aI9
aI10
aI15
aI5
aI12
aI7
aI9
aI10
aI6
aI11
aI5
aI12
aI7
aI9
aI10
aI4
aI11
aI5
aI12
aI7
aI9
aI10
aI6
aI15
aI5
aI12
aI0
aI7
aI9
aI10
aI11
aI5
aI12
aI0
aI0
aI0
aI7
aI9
aI14
aI12
aI7
aI9
aI10
aI4
aI15
aI5
aI12
aI0
aI7
aI9
aI1
aI6
aI5
aI13
aI0
aI7
aI9
aI10
aI15
aI5
aI13
aI7
aI9
aI10
aI6
aI11
aI5
aI13
aI7
aI9
aI10
aI6
aI15
aI5
aI13
aI0
aI7
aI9
aI10
aI11
aI5
aI13
aI0
aI0
aI0
aI7
aI9
aI14
aI13
aI0
aI7
aI9
aI1
aI4
aI5
aI2
aI0
aI7
aI9
aI1
aI6
aI5
aI2
aI0
aI7
aI9
aI10
aI15
aI5
aI2
aI7
aI9
aI10
aI6
aI11
aI5
aI2
aI7
aI9
aI10
aI4
aI11
aI5
aI2
aI7
aI9
aI10
aI6
aI15
aI5
aI2
aI0
aI7
aI9
aI10
aI11
aI5
aI2
aI0
aI0
aI0
aI7
aI9
aI14
aI2
aI7
aI9
aI10
aI4
aI15
aI5
aI2
aI0
aI7
aI9
aI1
aI4
aI5
aI3
aI0
aI7
aI9
aI1
aI6
aI5
aI3
aI0
aI7
aI9
aI10
aI15
aI5
aI3
aI7
aI9
aI10
aI6
aI15
aI5
aI3
aI0
aI0
aI0
aI7
aI9
aI14
aI3
aI7
aI9
aI10
aI4
aI15
aI5
aI3
aI0
aI7
aI9
aI1
aI6
aI5
aI8
aI0
aI7
aI9
aI10
aI15
aI5
aI8
aI7
aI9
aI10
aI6
aI11
aI5
aI8
aI7
aI9
aI10
aI6
aI15
aI5
aI8
aI0
aI7
aI9
aI10
aI11
aI5
aI8
aI0
aI0
aI0
aI7
aI9
aI14
aI8
aI7
aI9
aI10
aI4
aI15
aI5
aI8
aI0
aI7
aI9
aI1
aI4
aI5
aI12
aI0
aI7
aI9
aI1
aI6
aI5
aI12
aI0
aI7
aI9
aI10
aI15
aI5
aI12
aI7
aI9
aI10
aI6
aI11
aI5
aI12
aI7
aI9
aI10
aI4
aI11
aI5
aI12
aI7
aI9
aI10
aI6
aI15
aI5
aI12
aI0
aI7
aI9
aI10
aI11
aI5
aI12
aI0
aI0
aI0
aI7
aI9
aI14
aI12
aI7
aI9
aI10
aI4
aI15
aI5
aI12
aI0
aI7
aI9
aI1
aI4
aI5
aI13
aI0
aI7
aI9
aI1
aI6
aI5
aI13
aI0
aI7
aI9
aI10
aI15
aI5
aI13
aI7
aI9
aI10
aI6
aI11
aI5
aI13
aI7
aI9
aI10
aI4
aI11
aI5
aI13
aI7
aI9
aI10
aI6
aI15
aI5
aI13
aI0
aI7
aI9
aI10
aI11
aI5
aI13
aI0
aI0
aI0
aI7
aI9
aI14
aI13
aI7
aI9
aI10
aI4
aI15
aI5
aI13
aI0
aI7
aI9
aI1
aI4
aI5
aI2
aI0
aI7
aI9
aI1
aI6
aI5
aI2
aI0
aI7
aI9
aI10
aI15
aI5
aI2
aI7
aI9
aI10
aI6
aI11
aI5
aI2
aI7
aI9
aI10
aI6
aI15
aI5
aI2
aI0
aI7
aI9
aI10
aI11
aI5
aI2
aI0
aI0
aI0
aI7
aI9
aI14
aI2
aI7
aI9
aI10
aI4
aI15
aI5
aI2
aI0
aI7
aI9
aI1
aI4
aI5
aI3
aI0
aI7
aI9
aI10
aI15
aI5
aI3
aI7
aI9
aI10
aI4
aI11
aI5
aI3
aI0
aI0
aI0
aI7
aI9
aI14
aI3
aI7
aI9
aI10
aI4
aI15
aI5
aI3
aI0
aI7
aI9
aI1
aI6
aI5
aI8
aI0
aI7
aI9
aI10
aI15
aI5
aI8
aI7
aI9
aI10
aI6
aI11
aI5
aI8
aI7
aI9
aI10
aI4
aI11
aI5
aI8
aI7
aI9
aI10
aI6
aI15
aI5
aI8
aI0
aI7
aI9
aI10
aI11
aI5
aI8
aI0
aI0
aI0
aI7
aI9
aI14
aI8
aI0
aI7
aI9
aI1
aI6
aI5
aI12
aI0
aI7
aI9
aI10
aI15
aI5
aI12
aI7
aI9
aI10
aI6
aI11
aI5
aI12
aI7
aI9
aI10
aI6
aI15
aI5
aI12
aI0
aI7
aI9
aI10
aI11
aI5
aI12
aI0
aI0
aI0
aI7
aI9
aI14
aI12
aI0
aI7
aI9
aI1
aI4
aI5
aI13
aI0
aI7
aI9
aI1
aI6
aI5
aI13
aI0
aI7
aI9
aI10
aI15
aI5
aI13
aI7
aI9
aI10
aI6
aI11
aI5
aI13
aI7
aI9
aI10
aI4
aI11
aI5
aI13
aI7
aI9
aI10
aI6
aI15
aI5
aI13
aI0
aI7
aI9
aI10
aI11
aI5
aI13
aI0
aI0
aI0
aI7
aI9
aI14
aI13
aI7
aI9
aI10
aI4
aI15
aI5
aI13
aI0
aI7
aI9
aI1
aI6
aI5
aI2
aI7
aI9
aI10
aI6
aI11
aI5
aI2
aI7
aI9
aI10
aI4
aI11
aI5
aI2
aI7
aI9
aI10
aI6
aI15
aI5
aI2
aI0
aI7
aI9
aI10
aI11
aI5
aI2
aI0
aI0
aI0
aI7
aI9
aI14
aI2
aI0
aI7
aI9
aI1
aI4
aI5
aI3
aI0
aI7
aI9
aI1
aI6
aI5
aI3
aI0
aI7
aI9
aI10
aI15
aI5
aI3
aI7
aI9
aI10
aI6
aI11
aI5
aI3
aI7
aI9
aI10
aI4
aI11
aI5
aI3
aI7
aI9
aI10
aI6
aI15
aI5
aI3
aI0
aI7
aI9
aI10
aI11
aI5
aI3
aI0
aI0
aI0
aI7
aI9
aI14
aI3
aI7
aI9
aI10
aI4
aI15
aI5
aI3
aI0
aI7
aI9
aI1
aI4
aI5
aI8
aI0
aI7
aI9
aI1
aI6
aI5
aI8
aI0
aI7
aI9
aI10
aI15
aI5
aI8
aI7
aI9
aI10
aI6
aI11
aI5
aI8
aI7
aI9
aI10
aI4
aI11
aI5
aI8
aI7
aI9
aI10
aI6
aI15
aI5
aI8
aI0
aI7
aI9
aI10
aI11
aI5
aI8
aI0
aI0
aI0
aI7
aI9
aI14
aI8
aI7
aI9
aI10
aI4
aI15
aI5
aI8
aI0
aI7
aI9
aI1
aI4
aI5
aI12
aI0
aI7
aI9
aI10
aI15
aI5
aI12
aI7
aI9
aI10
aI4
aI11
aI5
aI12
aI0
aI7
aI9
aI10
aI11
aI5
aI12
aI0
aI0
aI0
aI7
aI9
aI14
aI12
aI7
aI9
aI10
aI4
aI15
aI5
aI12
aI0
aI7
aI9
aI1
aI4
aI5
aI13
aI0
aI7
aI9
aI1
aI6
aI5
aI13
aI0
aI7
aI9
aI10
aI15
aI5
aI13
aI7
aI9
aI10
aI6
aI15
aI5
aI13
aI0
aI0
aI0
aI7
aI9
aI14
aI13
aI7
aI9
aI10
aI4
aI15
aI5
aI13
aI0
aI7
aI9
aI1
aI4
aI5
aI2
aI0
aI7
aI9
aI1
aI6
aI5
aI2
aI0
aI7
aI9
aI10
aI15
aI5
aI2
aI7
aI9
aI10
aI6
aI11
aI5
aI2
aI7
aI9
aI10
aI4
aI11
aI5
aI2
aI7
aI9
aI10
aI6
aI15
aI5
aI2
aI0
aI7
aI9
aI10
aI11
aI5
aI2
aI0
aI0
aI0
aI7
aI9
aI14
aI2
aI7
aI9
aI10
aI4
aI15
aI5
aI2
aI0
aI7
aI9
aI1
aI6
aI5
aI3
aI7
aI9
aI10
aI6
aI11
aI5
aI3
aI0
aI7
aI9
aI10
aI11
aI5
aI3
aI0
aI0
aI0
aI7
aI9
aI14
aI3
aI0
aI7
aI9
aI1
aI4
aI5
aI8
aI0
aI7
aI9
aI1
aI6
aI5
aI8
aI0
aI7
aI9
aI10
aI15
aI5
aI8
aI7
aI9
aI10
aI6
aI15
aI5
aI8
aI0
aI0
aI0
aI7
aI9
aI14
aI8
aI7
aI9
aI10
aI4
aI15
aI5
aI8
aI0
aI7
aI9
aI1
aI4
aI5
aI12
aI0
aI7
aI9
aI1
aI6
aI5
aI12
aI7
aI9
aI10
aI6
aI11
aI5
aI12
aI7
aI9
aI10
aI4
aI11
aI5
aI12
aI0
aI7
aI9
aI10
aI11
aI5
aI12
aI0
aI0
aI0
aI7
aI9
aI14
aI12
aI7
aI9
aI10
aI4
aI15
aI5
aI12
aI0
aI7
aI9
aI1
aI4
aI5
aI13
aI0
aI7
aI9
aI10
aI15
aI5
aI13
aI7
aI9
aI10
aI4
aI11
aI5
aI13
aI0
aI7
aI9
aI10
aI11
aI5
aI13
aI0
aI0
aI0
aI7
aI9
aI14
aI13
aI7
aI9
aI10
aI4
aI15
aI5
aI13
aI0
aI7
aI9
aI1
aI4
aI5
aI2
aI0
aI7
aI9
aI1
aI6
aI5
aI2
aI0
aI7
aI9
aI10
aI15
aI5
aI2
aI7
aI9
aI10
aI6
aI15
aI5
aI2
aI0
aI0
aI0
aI7
aI9
aI14
aI2
aI7
aI9
aI10
aI4
aI15
aI5
aI2
aI0
aI7
aI9
aI1
aI4
aI5
aI3
aI0
aI7
aI9
aI1
aI6
aI5
aI3
aI0
aI7
aI9
aI10
aI15
aI5
aI3
aI7
aI9
aI10
aI6
aI11
aI5
aI3
aI7
aI9
aI10
aI4
aI11
aI5
aI3
aI7
aI9
aI10
aI6
aI15
aI5
aI3
aI0
aI7
aI9
aI10
aI11
aI5
aI3
aI0
aI0
aI0
aI7
aI9
aI14
aI3
aI7
aI9
aI10
aI4
aI15
aI5
aI3
aI0
aI7
aI9
aI1
aI6
aI5
aI8
aI0
aI7
aI9
aI10
aI15
aI5
aI8
aI7
aI9
aI10
aI6
aI11
aI5
aI8
aI7
aI9
aI10
aI6
aI15
aI5
aI8
aI0
aI7
aI9
aI10
aI11
aI5
aI8
aI0
aI0
aI0
aI7
aI9
aI14
aI8
aI0
aI7
aI9
aI1
aI4
aI5
aI12
aI0
aI7
aI9
aI1
aI6
aI5
aI12
aI0
aI7
aI9
aI10
aI15
aI5
aI12
aI7
aI9
aI10
aI6
aI11
aI5
aI12
aI7
aI9
aI10
aI4
aI11
aI5
aI12
aI7
aI9
aI10
aI6
aI15
aI5
aI12
aI0
aI7
aI9
aI10
aI11
aI5
aI12
aI0
aI0
aI0
aI7
aI9
aI14
aI12
aI7
aI9
aI10
aI4
aI15
aI5
aI12
aI0
aI7
aI9
aI1
aI6
aI5
aI13
aI0
aI7
aI9
aI10
aI15
aI5
aI13
aI7
aI9
aI10
aI6
aI15
aI5
aI13
aI0
aI0
aI0
aI7
aI9
aI14
aI13
aI0
aI7
aI9
aI1
aI4
aI5
aI2
aI0
aI7
aI9
aI1
aI6
aI5
aI2
aI0
aI7
aI9
aI10
aI15
aI5
aI2
aI7
aI9
aI10
aI6
aI15
aI5
aI2
aI0
aI0
aI0
aI7
aI9
aI14
aI2
aI7
aI9
aI10
aI4
aI15
aI5
aI2
aI0
aI7
aI9
aI1
aI4
aI5
aI3
aI0
aI7
aI9
aI1
aI6
aI5
aI3
aI7
aI9
aI10
aI6
aI11
aI5
aI3
aI7
aI9
aI10
aI4
aI11
aI5
aI3
aI0
aI7
aI9
aI10
aI11
aI5
aI3
aI0
aI0
aI0
aI7
aI9
aI14
aI3
aI0
aI7
aI9
aI1
aI4
aI5
aI8
aI0
aI7
aI9
aI10
aI15
aI5
aI8
aI7
aI9
aI10
aI4
aI11
aI5
aI8
aI0
aI7
aI9
aI10
aI11
aI5
aI8
aI0
aI0
aI0
aI7
aI9
aI14
aI8
aI7
aI9
aI10
aI4
aI15
aI5
aI8
aI0
aI7
aI9
aI1
aI4
aI5
aI12
aI0
aI7
aI9
aI1
aI6
aI5
aI12
aI0
aI7
aI9
aI10
aI15
aI5
aI12
aI7
aI9
aI10
aI6
aI11
aI5
aI12
aI7
aI9
aI10
aI4
aI11
aI5
aI12
aI7
aI9
aI10
aI6
aI15
aI5
aI12
aI0
aI7
aI9
aI10
aI11
aI5
aI12
aI0
aI0
aI0
aI7
aI9
aI14
aI12
aI7
aI9
aI10
aI4
aI15
aI5
aI12
aI0
aI7
aI9
aI1
aI4
aI5
aI13
aI0
aI7
aI9
aI1
aI6
aI5
aI13
aI0
aI7
aI9
aI10
aI15
aI5
aI13
aI7
aI9
aI10
aI6
aI15
aI5
aI13
aI0
aI0
aI0
aI7
aI9
aI14
aI13
aI7
aI9
aI10
aI4
aI15
aI5
aI13
aI0
aI7
aI9
aI1
aI4
aI5
aI2
aI0
aI7
aI9
aI1
aI6
aI5
aI2
aI7
aI9
aI10
aI6
aI11
aI5
aI2
aI7
aI9
aI10
aI4
aI11
aI5
aI2
aI0
aI7
aI9
aI10
aI11
aI5
aI2
aI0
aI0
aI0
aI7
aI9
aI14
aI2
aI0
aI7
aI9
aI1
aI4
aI5
aI3
aI0
aI7
aI9
aI1
aI6
aI5
aI3
aI7
aI9
aI10
aI6
aI15
aI5
aI3
aI0
aI0
aI0
aI7
aI9
aI14
aI3
aI0
aI7
aI9
aI1
aI6
aI5
aI8
aI0
aI7
aI9
aI10
aI15
aI5
aI8
aI7
aI9
aI10
aI6
aI11
aI5
aI8
aI7
aI9
aI10
aI6
aI15
aI5
aI8
aI0
aI7
aI9
aI10
aI11
aI5
aI8
aI0
aI0
aI0
aI7
aI9
aI14
aI8
aI0
aI7
aI9
aI1
aI4
aI5
aI12
aI0
aI7
aI9
aI1
aI6
aI5
aI12
aI0
aI7
aI9
aI10
aI15
aI5
aI12
aI7
aI9
aI10
aI6
aI11
aI5
aI12
aI7
aI9
aI10
aI4
aI11
aI5
aI12
aI7
aI9
aI10
aI6
aI15
aI5
aI12
aI0
aI7
aI9
aI10
aI11
aI5
aI12
aI0
aI0
aI0
aI7
aI9
aI14
aI12
aI7
aI9
aI10
aI4
aI15
aI5
aI12
aI0
aI7
aI9
aI1
aI4
aI5
aI13
aI0
aI7
aI9
aI1
aI6
aI5
aI13
aI0
aI7
aI9
aI10
aI15
aI5
aI13
aI7
aI9
aI10
aI6
aI11
aI5
aI13
aI7
aI9
aI10
aI4
aI11
aI5
aI13
aI7
aI9
aI10
aI6
aI15
aI5
aI13
aI0
aI7
aI9
aI10
aI11
aI5
aI13
aI0
aI0
aI0
aI7
aI9
aI14
aI13
aI7
aI9
aI10
aI4
aI15
aI5
aI13
aI0
aI7
aI9
aI1
aI4
aI5
aI2
aI0
aI7
aI9
aI1
aI6
aI5
aI2
aI0
aI7
aI9
aI10
aI15
aI5
aI2
aI7
aI9
aI10
aI6
aI11
aI5
aI2
aI7
aI9
aI10
aI4
aI11
aI5
aI2
aI7
aI9
aI10
aI6
aI15
aI5
aI2
aI0
aI7
aI9
aI10
aI11
aI5
aI2
aI0
aI0
aI0
aI7
aI9
aI14
aI2
aI7
aI9
aI10
aI4
aI15
aI5
aI2
aI0
aI7
aI9
aI1
aI4
aI5
aI3
aI0
aI7
aI9
aI1
aI6
aI5
aI3
aI0
aI7
aI9
aI10
aI15
aI5
aI3
aI7
aI9
aI10
aI6
aI11
aI5
aI3
aI7
aI9
aI10
aI4
aI11
aI5
aI3
aI7
aI9
aI10
aI6
aI15
aI5
aI3
aI0
aI7
aI9
aI10
aI11
aI5
aI3
aI0
aI0
aI0
aI7
aI9
aI14
aI3
aI7
aI9
aI10
aI4
aI15
aI5
aI3
aI0
aI7
aI9
aI1
aI4
aI5
aI8
aI7
aI9
aI10
aI4
aI11
aI5
aI8
aI0
aI7
aI9
aI10
aI11
aI5
aI8
aI0
aI0
aI0
aI7
aI9
aI14
aI8
aI0
aI7
aI9
aI1
aI4
aI5
aI12
aI0
aI7
aI9
aI1
aI6
aI5
aI12
aI0
aI7
aI9
aI10
aI15
aI5
aI12
aI7
aI9
aI10
aI6
aI11
aI5
aI12
aI7
aI9
aI10
aI4
aI11
aI5
aI12
aI7
aI9
aI10
aI6
aI15
aI5
aI12
aI0
aI7
aI9
aI10
aI11
aI5
aI12
aI0
aI0
aI0
aI7
aI9
aI14
aI12
aI7
aI9
aI10
aI4
aI15
aI5
aI12
aI0
aI7
aI9
aI1
aI4
aI5
aI13
aI0
aI7
aI9
aI1
aI6
aI5
aI13
aI7
aI9
aI10
aI6
aI11
aI5
aI13
aI7
aI9
aI10
aI4
aI11
aI5
aI13
aI0
aI7
aI9
aI10
aI11
aI5
aI13
aI0
aI0
aI0
aI7
aI9
aI14
aI13
aI0
aI7
aI9
aI1
aI4
aI5
aI2
aI0
aI7
aI9
aI1
aI6
aI5
aI2
aI7
aI9
aI10
aI6
aI11
aI5
aI2
aI7
aI9
aI10
aI4
aI11
aI5
aI2
aI0
aI7
aI9
aI10
aI11
aI5
aI2
aI0
aI0
aI0
aI7
aI9
aI14
aI2
aI0
aI7
aI9
aI1
aI4
aI5
aI3
aI0
aI7
aI9
aI1
aI6
aI5
aI3
aI0
aI7
aI9
aI10
aI15
aI5
aI3
aI7
aI9
aI10
aI6
aI11
aI5
aI3
aI7
aI9
aI10
aI4
aI11
aI5
aI3
aI7
aI9
aI10
aI6
aI15
aI5
aI3
aI0
aI7
aI9
aI10
aI11
aI5
aI3
aI0
aI0
aI0
aI7
aI9
aI14
aI3
aI7
aI9
aI10
aI4
aI15
aI5
aI3
aI0
aI7
aI9
aI1
aI6
aI5
aI8
aI0
aI7
aI9
aI10
aI15
aI5
aI8
aI7
aI9
aI10
aI6
aI11
aI5
aI8
aI7
aI9
aI10
aI6
aI15
aI5
aI8
aI0
aI7
aI9
aI10
aI11
aI5
aI8
aI0
aI0
aI0
aI7
aI9
aI14
aI8
aI0
aI7
aI9
aI1
aI4
aI5
aI12
aI0
aI7
aI9
aI1
aI6
aI5
aI12
aI0
aI7
aI9
aI10
aI15
aI5
aI12
aI7
aI9
aI10
aI6
aI11
aI5
aI12
aI7
aI9
aI10
aI4
aI11
aI5
aI12
aI7
aI9
aI10
aI6
aI15
aI5
aI12
aI0
aI7
aI9
aI10
aI11
aI5
aI12
aI0
aI0
aI0
aI7
aI9
aI14
aI12
aI7
aI9
aI10
aI4
aI15
aI5
aI12
aI0
aI7
aI9
aI1
aI6
aI5
aI13
aI0
aI7
aI9
aI10
aI15
aI5
aI13
aI7
aI9
aI10
aI6
aI11
aI5
aI13
aI7
aI9
aI10
aI4
aI11
aI5
aI13
aI7
aI9
aI10
aI6
aI15
aI5
aI13
aI0
aI7
aI9
aI10
aI11
aI5
aI13
aI0
aI0
aI0
aI7
aI9
aI14
aI13
aI7
aI9
aI10
aI4
aI15
aI5
aI13
aI0
aI7
aI9
aI1
aI4
aI5
aI2
aI0
aI7
aI9
aI1
aI6
aI5
aI2
aI0
aI7
aI9
aI10
aI15
aI5
aI2
aI7
aI9
aI10
aI6
aI11
aI5
aI2
aI7
aI9
aI10
aI4
aI11
aI5
aI2
aI7
aI9
aI10
aI6
aI15
aI5
aI2
aI0
aI7
aI9
aI10
aI11
aI5
aI2
aI0
aI0
aI0
aI7
aI9
aI14
aI2
aI7
aI9
aI10
aI4
aI15
aI5
aI2
aI0
aI7
aI9
aI1
aI4
aI5
aI3
aI0
aI7
aI9
aI1
aI6
aI5
aI3
aI7
aI9
aI10
aI6
aI11
aI5
aI3
aI7
aI9
aI10
aI4
aI11
aI5
aI3
aI7
aI9
aI10
aI6
aI15
aI5
aI3
aI0
aI7
aI9
aI10
aI11
aI5
aI3
aI0
aI0
aI0
aI7
aI9
aI14
aI3
aI0
aI7
aI9
aI1
aI4
aI5
aI8
aI0
aI7
aI9
aI1
aI6
aI5
aI8
aI0
aI7
aI9
aI10
aI15
aI5
aI8
aI7
aI9
aI10
aI4
aI11
aI5
aI8
aI7
aI9
aI10
aI6
aI15
aI5
aI8
aI0
aI7
aI9
aI10
aI11
aI5
aI8
aI0
aI0
aI0
aI7
aI9
aI14
aI8
aI7
aI9
aI10
aI4
aI15
aI5
aI8
aI0
aI7
aI9
aI1
aI4
aI5
aI12
aI0
aI7
aI9
aI1
aI6
aI5
aI12
aI0
aI7
aI9
aI10
aI15
aI5
aI12
aI7
aI9
aI10
aI6
aI11
aI5
aI12
aI7
aI9
aI10
aI4
aI11
aI5
aI12
aI7
aI9
aI10
aI6
aI15
aI5
aI12
aI0
aI7
aI9
aI10
aI11
aI5
aI12
aI0
aI0
aI0
aI7
aI9
aI14
aI12
aI7
aI9
aI10
aI4
aI15
aI5
aI12
aI0
aI7
aI9
aI1
aI6
aI5
aI13
aI0
aI7
aI9
aI10
aI15
aI5
aI13
aI7
aI9
aI10
aI6
aI11
aI5
aI13
aI7
aI9
aI10
aI6
aI15
aI5
aI13
aI0
aI7
aI9
aI10
aI11
aI5
aI13
aI0
aI0
aI0
aI7
aI9
aI14
aI13
aI0
aI7
aI9
aI1
aI4
aI5
aI2
aI0
aI7
aI9
aI1
aI6
aI5
aI2
aI0
aI7
aI9
aI10
aI15
aI5
aI2
aI7
aI9
aI10
aI6
aI11
aI5
aI2
aI7
aI9
aI10
aI4
aI11
aI5
aI2
aI7
aI9
aI10
aI6
aI15
aI5
aI2
aI0
aI7
aI9
aI10
aI11
aI5
aI2
aI0
aI0
aI0
aI7
aI9
aI14
aI2
aI7
aI9
aI10
aI4
aI15
aI5
aI2
aI0
aI7
aI9
aI1
aI4
aI5
aI3
aI0
aI7
aI9
aI10
aI15
aI5
aI3
aI7
aI9
aI10
aI4
aI11
aI5
aI3
aI0
aI7
aI9
aI10
aI11
aI5
aI3
aI0
aI0
aI0
aI7
aI9
aI14
aI3
aI7
aI9
aI10
aI4
aI15
aI5
aI3
aI0
aI7
aI9
aI1
aI4
aI5
aI8
aI0
aI7
aI9
aI1
aI6
aI5
aI8
aI0
aI7
aI9
aI10
aI15
aI5
aI8
aI7
aI9
aI10
aI6
aI11
aI5
aI8
aI7
aI9
aI10
aI4
aI11
aI5
aI8
aI7
aI9
aI10
aI6
aI15
aI5
aI8
aI0
aI7
aI9
aI10
aI11
aI5
aI8
aI0
aI0
aI0
aI7
aI9
aI14
aI8
aI7
aI9
aI10
aI4
aI15
aI5
aI8
aI0
aI7
aI9
aI1
aI4
aI5
aI12
aI0
aI7
aI9
aI1
aI6
aI5
aI12
aI0
aI7
aI9
aI10
aI15
aI5
aI12
aI7
aI9
aI10
aI4
aI11
aI5
aI12
aI7
aI9
aI10
aI6
aI15
aI5
aI12
aI0
aI0
aI0
aI7
aI9
aI14
aI12
aI7
aI9
aI10
aI4
aI15
aI5
aI12
aI0
aI7
aI9
aI1
aI4
aI5
aI13
aI0
aI7
aI9
aI1
aI6
aI5
aI13
aI0
aI7
aI9
aI10
aI15
aI5
aI13
aI7
aI9
aI10
aI6
aI11
aI5
aI13
aI7
aI9
aI10
aI4
aI11
aI5
aI13
aI7
aI9
aI10
aI6
aI15
aI5
aI13
aI0
aI7
aI9
aI10
aI11
aI5
aI13
aI0
aI0
aI0
aI7
aI9
aI14
aI13
aI7
aI9
aI10
aI4
aI15
aI5
aI13
aI0
aI7
aI9
aI1
aI4
aI5
aI2
aI0
aI7
aI9
aI1
aI6
aI5
aI2
aI0
aI7
aI9
aI10
aI15
aI5
aI2
aI7
aI9
aI10
aI6
aI11
aI5
aI2
aI7
aI9
aI10
aI4
aI11
aI5
aI2
aI7
aI9
aI10
aI6
aI15
aI5
aI2
aI0
aI7
aI9
aI10
aI11
aI5
aI2
aI0
aI0
aI0
aI7
aI9
aI14
aI2
aI7
aI9
aI10
aI4
aI15
aI5
aI2
aI0
aI7
aI9
aI1
aI4
aI5
aI3
aI0
aI7
aI9
aI10
aI15
aI5
aI3
aI0
aI0
aI0
aI7
aI9
aI14
aI3
aI7
aI9
aI10
aI4
aI15
aI5
aI3
aI0
aI7
aI9
aI1
aI4
aI5
aI8
aI0
aI7
aI9
aI1
aI6
aI5
aI8
aI0
aI7
aI9
aI10
aI15
aI5
aI8
aI7
aI9
aI10
aI6
aI11
aI5
aI8
aI7
aI9
aI10
aI4
aI11
aI5
aI8
aI7
aI9
aI10
aI6
aI15
aI5
aI8
aI0
aI7
aI9
aI10
aI11
aI5
aI8
aI0
aI0
aI0
aI7
aI9
aI14
aI8
aI0
aI7
aI9
aI1
aI4
aI5
aI12
aI0
aI7
aI9
aI1
aI6
aI5
aI12
aI0
aI7
aI9
aI10
aI15
aI5
aI12
aI7
aI9
aI10
aI6
aI15
aI5
aI12
aI0
aI0
aI0
aI7
aI9
aI14
aI12
aI7
aI9
aI10
aI4
aI15
aI5
aI12
aI0
aI7
aI9
aI1
aI4
aI5
aI13
aI0
aI7
aI9
aI10
aI15
aI5
aI13
aI7
aI9
aI10
aI4
aI11
aI5
aI13
aI0
aI7
aI9
aI10
aI11
aI5
aI13
aI0
aI0
aI0
aI7
aI9
aI14
aI13
aI7
aI9
aI10
aI4
aI15
aI5
aI13
aI0
aI7
aI9
aI1
aI4
aI5
aI2
aI0
aI7
aI9
aI1
aI6
aI5
aI2
aI0
aI7
aI9
aI10
aI15
aI5
aI2
aI7
aI9
aI10
aI6
aI11
aI5
aI2
aI7
aI9
aI10
aI4
aI11
aI5
aI2
aI7
aI9
aI10
aI6
aI15
aI5
aI2
aI0
aI7
aI9
aI10
aI11
aI5
aI2
aI0
aI0
aI0
aI7
aI9
aI14
aI2
aI7
aI9
aI10
aI4
aI15
aI5
aI2
aI0
aI7
aI9
aI1
aI4
aI5
aI3
aI0
aI7
aI9
aI1
aI6
aI5
aI3
aI0
aI7
aI9
aI10
aI15
aI5
aI3
aI7
aI9
aI10
aI6
aI11
aI5
aI3
aI7
aI9
aI10
aI4
aI11
aI5
aI3
aI7
aI9
aI10
aI6
aI15
aI5
aI3
aI0
aI7
aI9
aI10
aI11
aI5
aI3
aI0
aI0
aI0
aI7
aI9
aI14
aI3
aI7
aI9
aI10
aI4
aI15
aI5
aI3
aI0
aI7
aI9
aI1
aI4
aI5
aI8
aI0
aI7
aI9
aI1
aI6
aI5
aI8
aI0
aI7
aI9
aI10
aI15
aI5
aI8
aI7
aI9
aI10
aI6
aI11
aI5
aI8
aI7
aI9
aI10
aI4
aI11
aI5
aI8
aI7
aI9
aI10
aI6
aI15
aI5
aI8
aI0
aI7
aI9
aI10
aI11
aI5
aI8
aI0
aI0
aI0
aI7
aI9
aI14
aI8
aI7
aI9
aI10
aI4
aI15
aI5
aI8
aI0
aI7
aI9
aI1
aI4
aI5
aI12
aI0
aI7
aI9
aI1
aI6
aI5
aI12
aI0
aI7
aI9
aI10
aI15
aI5
aI12
aI7
aI9
aI10
aI6
aI11
aI5
aI12
aI7
aI9
aI10
aI4
aI11
aI5
aI12
aI7
aI9
aI10
aI6
aI15
aI5
aI12
aI0
aI7
aI9
aI10
aI11
aI5
aI12
aI0
aI0
aI0
aI7
aI9
aI14
aI12
aI7
aI9
aI10
aI4
aI15
aI5
aI12
aI0
aI7
aI9
aI1
aI4
aI5
aI13
aI0
aI7
aI9
aI1
aI6
aI5
aI13
aI0
aI7
aI9
aI10
aI15
aI5
aI13
aI7
aI9
aI10
aI6
aI11
aI5
aI13
aI7
aI9
aI10
aI4
aI11
aI5
aI13
aI7
aI9
aI10
aI6
aI15
aI5
aI13
aI0
aI7
aI9
aI10
aI11
aI5
aI13
aI0
aI0
aI0
aI7
aI9
aI14
aI13
aI7
aI9
aI10
aI4
aI15
aI5
aI13
aI0
aI7
aI9
aI1
aI4
aI5
aI2
aI0
aI7
aI9
aI1
aI6
aI5
aI2
aI0
aI7
aI9
aI10
aI15
aI5
aI2
aI7
aI9
aI10
aI6
aI11
aI5
aI2
aI7
aI9
aI10
aI4
aI11
aI5
aI2
aI7
aI9
aI10
aI6
aI15
aI5
aI2
aI0
aI7
aI9
aI10
aI11
aI5
aI2
aI0
aI0
aI0
aI7
aI9
aI14
aI2
aI7
aI9
aI10
aI4
aI15
aI5
aI2
aI0
aI7
aI9
aI1
aI4
aI5
aI3
aI0
aI7
aI9
aI1
aI6
aI5
aI3
aI0
aI7
aI9
aI10
aI15
aI5
aI3
aI7
aI9
aI10
aI6
aI11
aI5
aI3
aI7
aI9
aI10
aI4
aI11
aI5
aI3
aI7
aI9
aI10
aI6
aI15
aI5
aI3
aI0
aI7
aI9
aI10
aI11
aI5
aI3
aI0
aI0
aI0
aI7
aI9
aI14
aI3
aI7
aI9
aI10
aI4
aI15
aI5
aI3
aI0
aI7
aI9
aI1
aI4
aI5
aI8
aI0
aI7
aI9
aI1
aI6
aI5
aI8
aI0
aI0
aI0
aI7
aI9
aI14
aI8
aI0
aI7
aI9
aI1
aI4
aI5
aI12
aI0
aI7
aI9
aI1
aI6
aI5
aI12
aI0
aI7
aI9
aI10
aI15
aI5
aI12
aI7
aI9
aI10
aI6
aI11
aI5
aI12
aI7
aI9
aI10
aI4
aI11
aI5
aI12
aI7
aI9
aI10
aI6
aI15
aI5
aI12
aI0
aI7
aI9
aI10
aI11
aI5
aI12
aI0
aI0
aI0
aI7
aI9
aI14
aI12
aI7
aI9
aI10
aI4
aI15
aI5
aI12
aI0
aI7
aI9
aI1
aI4
aI5
aI13
aI0
aI7
aI9
aI1
aI6
aI5
aI13
aI0
aI7
aI9
aI10
aI15
aI5
aI13
aI7
aI9
aI10
aI6
aI11
aI5
aI13
aI7
aI9
aI10
aI4
aI11
aI5
aI13
aI7
aI9
aI10
aI6
aI15
aI5
aI13
aI0
aI7
aI9
aI10
aI11
aI5
aI13
aI0
aI0
aI0
aI7
aI9
aI14
aI13
aI7
aI9
aI10
aI4
aI15
aI5
aI13
aI0
aI7
aI9
aI1
aI4
aI5
aI2
aI0
aI7
aI9
aI1
aI6
aI5
aI2
aI0
aI7
aI9
aI10
aI15
aI5
aI2
aI7
aI9
aI10
aI6
aI11
aI5
aI2
aI7
aI9
aI10
aI6
aI15
aI5
aI2
aI0
aI7
aI9
aI10
aI11
aI5
aI2
aI0
aI0
aI0
aI7
aI9
aI14
aI2
aI7
aI9
aI10
aI4
aI15
aI5
aI2
aI0
aI7
aI9
aI1
aI4
aI5
aI3
aI0
aI7
aI9
aI1
aI6
aI5
aI3
aI0
aI7
aI9
aI10
aI15
aI5
aI3
aI7
aI9
aI10
aI6
aI11
aI5
aI3
aI7
aI9
aI10
aI4
aI11
aI5
aI3
aI7
aI9
aI10
aI6
aI15
aI5
aI3
aI0
aI7
aI9
aI10
aI11
aI5
aI3
aI0
aI0
aI0
aI7
aI9
aI14
aI3
aI7
aI9
aI10
aI4
aI15
aI5
aI3
aI0
aI7
aI9
aI1
aI4
aI5
aI8
aI0
aI7
aI9
aI1
aI6
aI5
aI8
aI0
aI7
aI9
aI10
aI15
aI5
aI8
aI7
aI9
aI10
aI6
aI11
aI5
aI8
aI7
aI9
aI10
aI4
aI11
aI5
aI8
aI7
aI9
aI10
aI6
aI15
aI5
aI8
aI0
aI7
aI9
aI10
aI11
aI5
aI8
aI0
aI0
aI0
aI7
aI9
aI14
aI8
aI7
aI9
aI10
aI4
aI15
aI5
aI8
aI0
aI7
aI9
aI1
aI6
aI5
aI12
aI0
aI7
aI9
aI10
aI15
aI5
aI12
aI7
aI9
aI10
aI6
aI11
aI5
aI12
aI7
aI9
aI10
aI6
aI15
aI5
aI12
aI0
aI7
aI9
aI10
aI11
aI5
aI12
aI0
aI0
aI0
aI7
aI9
aI14
aI12
aI7
aI9
aI10
aI4
aI15
aI5
aI12
aI0
aI7
aI9
aI1
aI4
aI5
aI13
aI0
aI7
aI9
aI1
aI6
aI5
aI13
aI7
aI9
aI10
aI6
aI11
aI5
aI13
aI7
aI9
aI10
aI4
aI11
aI5
aI13
aI7
aI9
aI10
aI6
aI15
aI5
aI13
aI0
aI7
aI9
aI10
aI11
aI5
aI13
aI0
aI0
aI0
aI7
aI9
aI14
aI13
aI0
aI7
aI9
aI1
aI4
aI5
aI2
aI0
aI7
aI9
aI1
aI6
aI5
aI2
aI0
aI7
aI9
aI10
aI15
aI5
aI2
aI7
aI9
aI10
aI6
aI15
aI5
aI2
aI0
aI0
aI0
aI7
aI9
aI14
aI2
aI7
aI9
aI10
aI4
aI15
aI5
aI2
aI0
aI7
aI9
aI1
aI4
aI5
aI3
aI0
aI7
aI9
aI1
aI6
aI5
aI3
aI0
aI7
aI9
aI10
aI15
aI5
aI3
aI7
aI9
aI10
aI6
aI11
aI5
aI3
aI7
aI9
aI10
aI4
aI11
aI5
aI3
aI7
aI9
aI10
aI6
aI15
aI5
aI3
aI0
aI7
aI9
aI10
aI11
aI5
aI3
aI0
aI0
aI0
aI7
aI9
aI14
aI3
aI7
aI9
aI10
aI4
aI15
aI5
aI3
aI0
aI7
aI9
aI1
aI6
aI5
aI8
aI7
aI9
aI10
aI6
aI11
aI5
aI8
aI0
aI7
aI9
aI10
aI11
aI5
aI8
aI0
aI0
aI0
aI7
aI9
aI14
aI8
aI0
aI7
aI9
aI1
aI4
aI5
aI12
aI0
aI7
aI9
aI10
aI15
aI5
aI12
aI7
aI9
aI10
aI6
aI11
aI5
aI12
aI7
aI9
aI10
aI4
aI11
aI5
aI12
aI0
aI7
aI9
aI10
aI11
aI5
aI12
aI0
aI0
aI0
aI7
aI9
aI14
aI12
aI7
aI9
aI10
aI4
aI15
aI5
aI12
aI0
aI7
aI9
aI1
aI4
aI5
aI13
aI0
aI7
aI9
aI10
aI15
aI5
aI13
aI7
aI9
aI10
aI4
aI11
aI5
aI13
aI0
aI7
aI9
aI10
aI11
aI5
aI13
aI0
aI0
aI0
aI7
aI9
aI14
aI13
aI7
aI9
aI10
aI4
aI15
aI5
aI13
aI0
aI7
aI9
aI1
aI4
aI5
aI2
aI0
aI7
aI9
aI1
aI6
aI5
aI2
aI0
aI7
aI9
aI10
aI15
aI5
aI2
aI7
aI9
aI10
aI6
aI15
aI5
aI2
aI0
aI0
aI0
aI7
aI9
aI14
aI2
aI7
aI9
aI10
aI4
aI15
aI5
aI2
aI0
aI7
aI9
aI1
aI4
aI5
aI3
aI0
aI7
aI9
aI1
aI6
aI5
aI3
aI0
aI7
aI9
aI10
aI15
aI5
aI3
aI7
aI9
aI10
aI6
aI11
aI5
aI3
aI7
aI9
aI10
aI6
aI15
aI5
aI3
aI0
aI7
aI9
aI10
aI11
aI5
aI3
aI0
aI0
aI0
aI7
aI9
aI14
aI3
aI7
aI9
aI10
aI4
aI15
aI5
aI3
aI0
aI7
aI9
aI1
aI4
aI5
aI8
aI0
aI7
aI9
aI10
aI15
aI5
aI8
aI7
aI9
aI10
aI4
aI11
aI5
aI8
aI0
aI7
aI9
aI10
aI11
aI5
aI8
aI0
aI0
aI0
aI7
aI9
aI14
aI8
aI7
aI9
aI10
aI4
aI15
aI5
aI8
aI0
aI7
aI9
aI1
aI4
aI5
aI12
aI0
aI7
aI9
aI1
aI6
aI5
aI12
aI0
aI7
aI9
aI10
aI15
aI5
aI12
aI7
aI9
aI10
aI6
aI11
aI5
aI12
aI7
aI9
aI10
aI4
aI11
aI5
aI12
aI7
aI9
aI10
aI6
aI15
aI5
aI12
aI0
aI7
aI9
aI10
aI11
aI5
aI12
aI0
aI0
aI0
aI7
aI9
aI14
aI12
aI7
aI9
aI10
aI4
aI15
aI5
aI12
aI0
aI7
aI9
aI1
aI4
aI5
aI13
aI0
aI7
aI9
aI1
aI6
aI5
aI13
aI0
aI7
aI9
aI10
aI15
aI5
aI13
aI7
aI9
aI10
aI4
aI11
aI5
aI13
aI7
aI9
aI10
aI6
aI15
aI5
aI13
aI0
aI0
aI0
aI7
aI9
aI14
aI13
aI7
aI9
aI10
aI4
aI15
aI5
aI13
atp4
Rp5
I0
(L722L
L7L
tp6
(L7L
L1L
tp7
tp8
b.